target datalayout = "e-m:e-p270:32:32-p271:32:32-p272:64:64-i64:64-i128:128-f80:128-n8:16:32:64-S128"
target triple = "x86_64-unknown-linux-gnu"

%"class.Imf_3_2::OpaqueAttribute" = type { %"class.Imf_3_2::Attribute", %"class.std::__cxx11::basic_string", i64, %"class.Imf_3_2::Array" }
%"class.Imf_3_2::Attribute" = type { ptr }
%"class.std::__cxx11::basic_string" = type { %"struct.std::__cxx11::basic_string<char>::_Alloc_hider", i64, %union.anon }
%"struct.std::__cxx11::basic_string<char>::_Alloc_hider" = type { ptr }
%union.anon = type { i64, [8 x i8] }
%"class.Imf_3_2::Array" = type { i64, ptr }

; Function Attrs: mustprogress uwtable
define linkonce_odr hidden noundef zeroext i1 @_ZN7Imf_3_28StreamIO9readCharsERNS_7IStreamEPci(ptr noundef nonnull align 8 dereferenceable(40) %is, ptr noundef %c, i32 noundef %n) #4 comdat align 2 {
entry:
  %is.addr = alloca ptr, align 8
  %c.addr = alloca ptr, align 8
  %n.addr = alloca i32, align 4
  store ptr %is, ptr %is.addr, align 8
  store ptr %c, ptr %c.addr, align 8
  store i32 %n, ptr %n.addr, align 4
  %0 = load ptr, ptr %is.addr, align 8
  %1 = load ptr, ptr %c.addr, align 8
  %2 = load i32, ptr %n.addr, align 4
  %vtable = load ptr, ptr %0, align 8
  %vfn = getelementptr inbounds ptr, ptr %vtable, i64 3
  %3 = load ptr, ptr %vfn, align 8
  %call = call noundef zeroext i1 %3(ptr noundef nonnull align 8 dereferenceable(40) %0, ptr noundef %1, i32 noundef %2)
  ret i1 %call
}

; Function Attrs: mustprogress uwtable
define linkonce_odr hidden void @_ZN7Imf_3_23Xdr4readINS_8StreamIOENS_7IStreamEEEvRT0_Pci(ptr noundef nonnull align 8 dereferenceable(40) %in, ptr noundef %v, i32 noundef %n) #4 comdat {
entry:
  %in.addr = alloca ptr, align 8
  %v.addr = alloca ptr, align 8
  %n.addr = alloca i32, align 4
  store ptr %in, ptr %in.addr, align 8
  store ptr %v, ptr %v.addr, align 8
  store i32 %n, ptr %n.addr, align 4
  %0 = load ptr, ptr %in.addr, align 8
  %1 = load ptr, ptr %v.addr, align 8
  %2 = load i32, ptr %n.addr, align 4
  %call = call noundef zeroext i1 @_ZN7Imf_3_28StreamIO9readCharsERNS_7IStreamEPci(ptr noundef nonnull align 8 dereferenceable(40) %0, ptr noundef %1, i32 noundef %2)
  ret void
}

; Function Attrs: mustprogress nounwind uwtable
define linkonce_odr hidden noundef ptr @_ZN7Imf_3_25ArrayIcEcvPcEv(ptr noundef nonnull align 8 dereferenceable(16) %this) #5 comdat align 2 {
entry:
  %this.addr = alloca ptr, align 8
  store ptr %this, ptr %this.addr, align 8
  %this1 = load ptr, ptr %this.addr, align 8
  %_data = getelementptr inbounds %"class.Imf_3_2::Array", ptr %this1, i32 0, i32 1
  %0 = load ptr, ptr %_data, align 8
  ret ptr %0
}

; Function Attrs: mustprogress uwtable
define linkonce_odr hidden void @_ZN7Imf_3_25ArrayIcE11resizeEraseEl(ptr noundef nonnull align 8 dereferenceable(16) %this, i64 noundef %size) #4 comdat align 2 {
entry:
  %this.addr = alloca ptr, align 8
  %size.addr = alloca i64, align 8
  %tmp = alloca ptr, align 8
  store ptr %this, ptr %this.addr, align 8
  store i64 %size, ptr %size.addr, align 8
  %this1 = load ptr, ptr %this.addr, align 8
  %0 = load i64, ptr %size.addr, align 8
  %call = call noalias noundef nonnull ptr @_Znam(i64 noundef %0) #13
  store ptr %call, ptr %tmp, align 8
  %_data = getelementptr inbounds %"class.Imf_3_2::Array", ptr %this1, i32 0, i32 1
  %1 = load ptr, ptr %_data, align 8
  %isnull = icmp eq ptr %1, null
  br i1 %isnull, label %delete.end, label %delete.notnull

delete.notnull:                                   ; preds = %entry
  call void @_ZdaPv(ptr noundef %1) #14
  br label %delete.end

delete.end:                                       ; preds = %delete.notnull, %entry
  %2 = load i64, ptr %size.addr, align 8
  %_size = getelementptr inbounds %"class.Imf_3_2::Array", ptr %this1, i32 0, i32 0
  store i64 %2, ptr %_size, align 8
  %3 = load ptr, ptr %tmp, align 8
  %_data2 = getelementptr inbounds %"class.Imf_3_2::Array", ptr %this1, i32 0, i32 1
  store ptr %3, ptr %_data2, align 8
  ret void
}

; Function Attrs: mustprogress uwtable
define void @_ZN7Imf_3_215OpaqueAttribute13readValueFromERNS_7IStreamEii(ptr noundef nonnull align 8 dereferenceable(64) %this, ptr noundef nonnull align 8 dereferenceable(40) %is, i32 noundef %size, i32 noundef %version) unnamed_addr #4 align 2 {
entry:
  %this.addr = alloca ptr, align 8
  %is.addr = alloca ptr, align 8
  %size.addr = alloca i32, align 4
  %version.addr = alloca i32, align 4
  store ptr %this, ptr %this.addr, align 8
  store ptr %is, ptr %is.addr, align 8
  store i32 %size, ptr %size.addr, align 4
  store i32 %version, ptr %version.addr, align 4
  %this1 = load ptr, ptr %this.addr, align 8
  %_data = getelementptr inbounds %"class.Imf_3_2::OpaqueAttribute", ptr %this1, i32 0, i32 3
  %0 = load i32, ptr %size.addr, align 4
  %conv = sext i32 %0 to i64
  call void @_ZN7Imf_3_25ArrayIcE11resizeEraseEl(ptr noundef nonnull align 8 dereferenceable(16) %_data, i64 noundef %conv)
  %1 = load i32, ptr %size.addr, align 4
  %conv2 = sext i32 %1 to i64
  %_dataSize = getelementptr inbounds %"class.Imf_3_2::OpaqueAttribute", ptr %this1, i32 0, i32 2
  store i64 %conv2, ptr %_dataSize, align 8
  %2 = load ptr, ptr %is.addr, align 8
  %_data3 = getelementptr inbounds %"class.Imf_3_2::OpaqueAttribute", ptr %this1, i32 0, i32 3
  %call = call noundef ptr @_ZN7Imf_3_25ArrayIcEcvPcEv(ptr noundef nonnull align 8 dereferenceable(16) %_data3)
  %3 = load i32, ptr %size.addr, align 4
  call void @_ZN7Imf_3_23Xdr4readINS_8StreamIOENS_7IStreamEEEvRT0_Pci(ptr noundef nonnull align 8 dereferenceable(40) %2, ptr noundef %call, i32 noundef %3)
  ret void
}