; Function Attrs: mustprogress uwtable
define void @_ZN7Imf_3_215OpaqueAttribute13readValueFromERNS_7IStreamEii(ptr nocapture noundef nonnull align 8 dereferenceable(64) %this, ptr noundef nonnull align 8 dereferenceable(40) %is, i32 noundef %size, i32 %version) unnamed_addr #3 align 2 {
entry:
  %conv = sext i32 %size to i64
  %call.i = tail call noalias noundef nonnull ptr @_Znam(i64 noundef %conv) #17
  %_data.i = getelementptr inbounds i8, ptr %this, i64 56
  %0 = load ptr, ptr %_data.i, align 8
  %isnull.i = icmp eq ptr %0, null
  br i1 %isnull.i, label %_ZN7Imf_3_25ArrayIcE11resizeEraseEl.exit, label %delete.notnull.i

delete.notnull.i:                                 ; preds = %entry
  tail call void @_ZdaPv(ptr noundef nonnull %0) #18
  br label %_ZN7Imf_3_25ArrayIcE11resizeEraseEl.exit

_ZN7Imf_3_25ArrayIcE11resizeEraseEl.exit:         ; preds = %entry, %delete.notnull.i
  %_data = getelementptr inbounds i8, ptr %this, i64 48
  store i64 %conv, ptr %_data, align 8
  store ptr %call.i, ptr %_data.i, align 8
  %_dataSize = getelementptr inbounds i8, ptr %this, i64 40
  store i64 %conv, ptr %_dataSize, align 8
  %vtable.i.i = load ptr, ptr %is, align 8
  %vfn.i.i = getelementptr inbounds i8, ptr %vtable.i.i, i64 24
  %1 = load ptr, ptr %vfn.i.i, align 8
  %call.i.i = tail call noundef zeroext i1 %1(ptr noundef nonnull align 8 dereferenceable(40) %is, ptr noundef nonnull %call.i, i32 noundef %size)
  ret void
}